target datalayout = "e-m:e-p270:32:32-p271:32:32-p272:64:64-i64:64-i128:128-f80:128-n8:16:32:64-S128"
target triple = "x86_64-pc-linux-gnu"

%struct.Parser = type { ptr, ptr, i32, i32, i32, ptr, ptr, ptr, i32, i32, ptr, i32, ptr, i32, i32, i32, i32, i32, %struct.growable_comment_array, ptr, i32, i32, i32 }
%struct.growable_comment_array = type { ptr, i64, i64 }
%struct.Token = type { i32, ptr, i32, i32, i32, i32, i32, ptr, ptr }

; Function Attrs: nounwind uwtable
define hidden ptr @_PyPegen_expect_soft_keyword(ptr noundef %0, ptr noundef %1) #0 {
  %3 = alloca ptr, align 8
  %4 = alloca ptr, align 8
  %5 = alloca ptr, align 8
  %6 = alloca ptr, align 8
  %7 = alloca i32, align 4
  %8 = alloca ptr, align 8
  store ptr %0, ptr %4, align 8, !tbaa !4
  store ptr %1, ptr %5, align 8, !tbaa !21
  %9 = load ptr, ptr %4, align 8, !tbaa !4
  %10 = getelementptr inbounds nuw %struct.Parser, ptr %9, i32 0, i32 2
  %11 = load i32, ptr %10, align 8, !tbaa !38
  %12 = load ptr, ptr %4, align 8, !tbaa !4
  %13 = getelementptr inbounds nuw %struct.Parser, ptr %12, i32 0, i32 3
  %14 = load i32, ptr %13, align 4, !tbaa !59
  %15 = icmp eq i32 %11, %14
  br i1 %15, label %16, label %24

16:                                               ; preds = %2
  %17 = load ptr, ptr %4, align 8, !tbaa !4
  %18 = call i32 @_PyPegen_fill_token(ptr noundef %17)
  %19 = icmp slt i32 %18, 0
  br i1 %19, label %20, label %23

20:                                               ; preds = %16
  %21 = load ptr, ptr %4, align 8, !tbaa !4
  %22 = getelementptr inbounds nuw %struct.Parser, ptr %21, i32 0, i32 15
  store i32 1, ptr %22, align 8, !tbaa !86
  store ptr null, ptr %3, align 8
  br label %60

23:                                               ; preds = %16
  br label %24

24:                                               ; preds = %23, %2
  call void @llvm.lifetime.start.p0(i64 8, ptr %6) #10
  %25 = load ptr, ptr %4, align 8, !tbaa !4
  %26 = getelementptr inbounds nuw %struct.Parser, ptr %25, i32 0, i32 1
  %27 = load ptr, ptr %26, align 8, !tbaa !40
  %28 = load ptr, ptr %4, align 8, !tbaa !4
  %29 = getelementptr inbounds nuw %struct.Parser, ptr %28, i32 0, i32 2
  %30 = load i32, ptr %29, align 8, !tbaa !38
  %31 = sext i32 %30 to i64
  %32 = getelementptr ptr, ptr %27, i64 %31
  %33 = load ptr, ptr %32, align 8, !tbaa !4
  store ptr %33, ptr %6, align 8, !tbaa !4
  %34 = load ptr, ptr %6, align 8, !tbaa !4
  %35 = getelementptr inbounds nuw %struct.Token, ptr %34, i32 0, i32 0
  %36 = load i32, ptr %35, align 8, !tbaa !70
  %37 = icmp ne i32 %36, 1
  br i1 %37, label %38, label %39

38:                                               ; preds = %24
  store ptr null, ptr %3, align 8
  store i32 1, ptr %7, align 4
  br label %59

39:                                               ; preds = %24
  call void @llvm.lifetime.start.p0(i64 8, ptr %8) #10
  %40 = load ptr, ptr %6, align 8, !tbaa !4
  %41 = getelementptr inbounds nuw %struct.Token, ptr %40, i32 0, i32 1
  %42 = load ptr, ptr %41, align 8, !tbaa !72
  %43 = call ptr @PyBytes_AsString(ptr noundef %42)
  store ptr %43, ptr %8, align 8, !tbaa !21
  %44 = load ptr, ptr %8, align 8, !tbaa !21
  %45 = icmp ne ptr %44, null
  br i1 %45, label %49, label %46

46:                                               ; preds = %39
  %47 = load ptr, ptr %4, align 8, !tbaa !4
  %48 = getelementptr inbounds nuw %struct.Parser, ptr %47, i32 0, i32 15
  store i32 1, ptr %48, align 8, !tbaa !86
  store ptr null, ptr %3, align 8
  store i32 1, ptr %7, align 4
  br label %58

49:                                               ; preds = %39
  %50 = load ptr, ptr %8, align 8, !tbaa !21
  %51 = load ptr, ptr %5, align 8, !tbaa !21
  %52 = call i32 @strcmp(ptr noundef %50, ptr noundef %51) #11
  %53 = icmp ne i32 %52, 0
  br i1 %53, label %54, label %55

54:                                               ; preds = %49
  store ptr null, ptr %3, align 8
  store i32 1, ptr %7, align 4
  br label %58

55:                                               ; preds = %49
  %56 = load ptr, ptr %4, align 8, !tbaa !4
  %57 = call ptr @_PyPegen_name_token(ptr noundef %56)
  store ptr %57, ptr %3, align 8
  store i32 1, ptr %7, align 4
  br label %58

58:                                               ; preds = %55, %54, %46
  call void @llvm.lifetime.end.p0(i64 8, ptr %8) #10
  br label %59

59:                                               ; preds = %58, %38
  call void @llvm.lifetime.end.p0(i64 8, ptr %6) #10
  br label %60

60:                                               ; preds = %59, %20
  %61 = load ptr, ptr %3, align 8
  ret ptr %61
}