; Function Attrs: nounwind uwtable
define hidden ptr @_PyPegen_expect_soft_keyword(ptr noundef %0, ptr noundef readonly captures(none) %1) local_unnamed_addr #1 {
  %3 = getelementptr inbounds nuw i8, ptr %0, i64 16
  %4 = load i32, ptr %3, align 8, !tbaa !33
  %5 = getelementptr inbounds nuw i8, ptr %0, i64 20
  %6 = load i32, ptr %5, align 4, !tbaa !62
  %7 = icmp eq i32 %4, %6
  br i1 %7, label %8, label %13

8:                                                ; preds = %2
  %9 = tail call i32 @_PyPegen_fill_token(ptr noundef nonnull %0)
  %10 = icmp slt i32 %9, 0
  br i1 %10, label %11, label %._crit_edge

._crit_edge:                                      ; preds = %8
  %.pre = load i32, ptr %3, align 8, !tbaa !33
  br label %13

11:                                               ; preds = %8
  %12 = getelementptr inbounds nuw i8, ptr %0, i64 96
  store i32 1, ptr %12, align 8, !tbaa !87
  br label %31

13:                                               ; preds = %._crit_edge, %2
  %14 = phi i32 [ %.pre, %._crit_edge ], [ %4, %2 ]
  %15 = getelementptr inbounds nuw i8, ptr %0, i64 8
  %16 = load ptr, ptr %15, align 8, !tbaa !35
  %17 = sext i32 %14 to i64
  %18 = getelementptr ptr, ptr %16, i64 %17
  %19 = load ptr, ptr %18, align 8, !tbaa !36
  %20 = load i32, ptr %19, align 8, !tbaa !71
  %.not = icmp eq i32 %20, 1
  br i1 %.not, label %21, label %31

21:                                               ; preds = %13
  %22 = getelementptr inbounds nuw i8, ptr %19, i64 8
  %23 = load ptr, ptr %22, align 8, !tbaa !73
  %24 = tail call ptr @PyBytes_AsString(ptr noundef %23) #13
  %.not15 = icmp eq ptr %24, null
  br i1 %.not15, label %25, label %27

25:                                               ; preds = %21
  %26 = getelementptr inbounds nuw i8, ptr %0, i64 96
  store i32 1, ptr %26, align 8, !tbaa !87
  br label %31

27:                                               ; preds = %21
  %28 = tail call i32 @strcmp(ptr noundef nonnull dereferenceable(1) %24, ptr noundef nonnull dereferenceable(1) %1) #14
  %.not16 = icmp eq i32 %28, 0
  br i1 %.not16, label %29, label %31

29:                                               ; preds = %27
  %30 = tail call ptr @_PyPegen_name_token(ptr noundef nonnull %0)
  br label %31

31:                                               ; preds = %13, %27, %29, %25, %11
  %.0 = phi ptr [ null, %11 ], [ null, %13 ], [ %30, %29 ], [ null, %25 ], [ null, %27 ]
  ret ptr %.0
}